target datalayout = "e-m:e-p270:32:32-p271:32:32-p272:64:64-i64:64-i128:128-f80:128-n8:16:32:64-S128"
target triple = "x86_64-pc-linux-gnu"

%"class.cv::Size_" = type { i32, i32 }
%"class.cv::Rect_" = type { i32, i32, i32, i32 }
%"class.std::__shared_count" = type { ptr }
%"class.std::__shared_ptr.6" = type { ptr, %"class.std::__shared_count" }

; Function Attrs: mustprogress nounwind uwtable
define linkonce_odr hidden noundef ptr @_ZNKSt12__shared_ptrIN2cv13StereoMatcherELN9__gnu_cxx12_Lock_policyE2EE3getEv(ptr noundef nonnull align 8 dereferenceable(16) %0) #6 comdat align 2 {
  %2 = alloca ptr, align 8
  store ptr %0, ptr %2, align 8
  %3 = load ptr, ptr %2, align 8
  %4 = getelementptr inbounds %"class.std::__shared_ptr.6", ptr %3, i32 0, i32 0
  %5 = load ptr, ptr %4, align 8
  ret ptr %5
}

; Function Attrs: mustprogress nounwind uwtable
define linkonce_odr hidden void @_ZN2cv5Rect_IiEC2Eiiii(ptr noundef nonnull align 4 dereferenceable(16) %0, i32 noundef %1, i32 noundef %2, i32 noundef %3, i32 noundef %4) unnamed_addr #6 comdat align 2 {
  %6 = alloca ptr, align 8
  %7 = alloca i32, align 4
  %8 = alloca i32, align 4
  %9 = alloca i32, align 4
  %10 = alloca i32, align 4
  store ptr %0, ptr %6, align 8
  store i32 %1, ptr %7, align 4
  store i32 %2, ptr %8, align 4
  store i32 %3, ptr %9, align 4
  store i32 %4, ptr %10, align 4
  %11 = load ptr, ptr %6, align 8
  %12 = getelementptr inbounds %"class.cv::Rect_", ptr %11, i32 0, i32 0
  %13 = load i32, ptr %7, align 4
  store i32 %13, ptr %12, align 4
  %14 = getelementptr inbounds %"class.cv::Rect_", ptr %11, i32 0, i32 1
  %15 = load i32, ptr %8, align 4
  store i32 %15, ptr %14, align 4
  %16 = getelementptr inbounds %"class.cv::Rect_", ptr %11, i32 0, i32 2
  %17 = load i32, ptr %9, align 4
  store i32 %17, ptr %16, align 4
  %18 = getelementptr inbounds %"class.cv::Rect_", ptr %11, i32 0, i32 3
  %19 = load i32, ptr %10, align 4
  store i32 %19, ptr %18, align 4
  ret void
}

; Function Attrs: mustprogress nounwind uwtable
define linkonce_odr hidden noundef ptr @_ZNK2cv3PtrINS_13StereoMatcherEEptEv(ptr noundef nonnull align 8 dereferenceable(16) %0) #6 comdat align 2 {
  %2 = alloca ptr, align 8
  store ptr %0, ptr %2, align 8
  %3 = load ptr, ptr %2, align 8
  %4 = call noundef ptr @_ZNKSt12__shared_ptrIN2cv13StereoMatcherELN9__gnu_cxx12_Lock_policyE2EE3getEv(ptr noundef nonnull align 8 dereferenceable(16) %3) #3
  ret ptr %4
}

; Function Attrs: mustprogress uwtable
define hidden { i64, i64 } @_Z10computeROIN2cv5Size_IiEENS_3PtrINS_13StereoMatcherEEE(i64 %0, ptr noundef %1) #5 {
  %3 = alloca %"class.cv::Rect_", align 4
  %4 = alloca %"class.cv::Size_", align 4
  %5 = alloca ptr, align 8
  %6 = alloca i32, align 4
  %7 = alloca i32, align 4
  %8 = alloca i32, align 4
  %9 = alloca i32, align 4
  %10 = alloca i32, align 4
  %11 = alloca i32, align 4
  %12 = alloca i32, align 4
  %13 = alloca i32, align 4
  %14 = alloca i32, align 4
  %15 = alloca i32, align 4
  store i64 %0, ptr %4, align 4
  store ptr %1, ptr %5, align 8
  %16 = call noundef ptr @_ZNK2cv3PtrINS_13StereoMatcherEEptEv(ptr noundef nonnull align 8 dereferenceable(16) %1) #3
  %17 = load ptr, ptr %16, align 8
  %18 = getelementptr inbounds ptr, ptr %17, i64 9
  %19 = load ptr, ptr %18, align 8
  %20 = call noundef i32 %19(ptr noundef nonnull align 8 dereferenceable(8) %16)
  store i32 %20, ptr %6, align 4
  %21 = call noundef ptr @_ZNK2cv3PtrINS_13StereoMatcherEEptEv(ptr noundef nonnull align 8 dereferenceable(16) %1) #3
  %22 = load ptr, ptr %21, align 8
  %23 = getelementptr inbounds ptr, ptr %22, i64 11
  %24 = load ptr, ptr %23, align 8
  %25 = call noundef i32 %24(ptr noundef nonnull align 8 dereferenceable(8) %21)
  store i32 %25, ptr %7, align 4
  %26 = call noundef ptr @_ZNK2cv3PtrINS_13StereoMatcherEEptEv(ptr noundef nonnull align 8 dereferenceable(16) %1) #3
  %27 = load ptr, ptr %26, align 8
  %28 = getelementptr inbounds ptr, ptr %27, i64 13
  %29 = load ptr, ptr %28, align 8
  %30 = call noundef i32 %29(ptr noundef nonnull align 8 dereferenceable(8) %26)
  store i32 %30, ptr %8, align 4
  %31 = load i32, ptr %8, align 4
  %32 = sdiv i32 %31, 2
  store i32 %32, ptr %9, align 4
  %33 = load i32, ptr %6, align 4
  store i32 %33, ptr %10, align 4
  %34 = load i32, ptr %6, align 4
  %35 = load i32, ptr %7, align 4
  %36 = add nsw i32 %34, %35
  %37 = sub nsw i32 %36, 1
  store i32 %37, ptr %11, align 4
  %38 = load i32, ptr %11, align 4
  %39 = load i32, ptr %9, align 4
  %40 = add nsw i32 %38, %39
  store i32 %40, ptr %12, align 4
  %41 = getelementptr inbounds %"class.cv::Size_", ptr %4, i32 0, i32 0
  %42 = load i32, ptr %41, align 4
  %43 = load i32, ptr %10, align 4
  %44 = add nsw i32 %42, %43
  %45 = load i32, ptr %9, align 4
  %46 = sub nsw i32 %44, %45
  store i32 %46, ptr %13, align 4
  %47 = load i32, ptr %9, align 4
  store i32 %47, ptr %14, align 4
  %48 = getelementptr inbounds %"class.cv::Size_", ptr %4, i32 0, i32 1
  %49 = load i32, ptr %48, align 4
  %50 = load i32, ptr %9, align 4
  %51 = sub nsw i32 %49, %50
  store i32 %51, ptr %15, align 4
  %52 = load i32, ptr %12, align 4
  %53 = load i32, ptr %14, align 4
  %54 = load i32, ptr %13, align 4
  %55 = load i32, ptr %12, align 4
  %56 = sub nsw i32 %54, %55
  %57 = load i32, ptr %15, align 4
  %58 = load i32, ptr %14, align 4
  %59 = sub nsw i32 %57, %58
  call void @_ZN2cv5Rect_IiEC2Eiiii(ptr noundef nonnull align 4 dereferenceable(16) %3, i32 noundef %52, i32 noundef %53, i32 noundef %56, i32 noundef %59)
  %60 = load { i64, i64 }, ptr %3, align 4
  ret { i64, i64 } %60
}