; Function Attrs: mustprogress uwtable
define hidden { i64, i64 } @_Z10computeROIN2cv5Size_IiEENS_3PtrINS_13StereoMatcherEEE(i64 %0, ptr nocapture noundef readonly %1) local_unnamed_addr #5 {
  %.sroa.0.0.extract.trunc = trunc i64 %0 to i32
  %.sroa.2.0.extract.shift = lshr i64 %0, 32
  %.sroa.2.0.extract.trunc = trunc nuw i64 %.sroa.2.0.extract.shift to i32
  %3 = load ptr, ptr %1, align 8
  %4 = load ptr, ptr %3, align 8
  %5 = getelementptr inbounds i8, ptr %4, i64 72
  %6 = load ptr, ptr %5, align 8
  %7 = tail call noundef i32 %6(ptr noundef nonnull align 8 dereferenceable(8) %3)
  %8 = load ptr, ptr %1, align 8
  %9 = load ptr, ptr %8, align 8
  %10 = getelementptr inbounds i8, ptr %9, i64 88
  %11 = load ptr, ptr %10, align 8
  %12 = tail call noundef i32 %11(ptr noundef nonnull align 8 dereferenceable(8) %8)
  %13 = load ptr, ptr %1, align 8
  %14 = load ptr, ptr %13, align 8
  %15 = getelementptr inbounds i8, ptr %14, i64 104
  %16 = load ptr, ptr %15, align 8
  %17 = tail call noundef i32 %16(ptr noundef nonnull align 8 dereferenceable(8) %13)
  %18 = sdiv i32 %17, 2
  %19 = add i32 %7, -1
  %20 = add i32 %19, %12
  %21 = add nsw i32 %20, %18
  %.neg17 = add i32 %7, %.sroa.0.0.extract.trunc
  %22 = add i32 %18, %21
  %23 = sub i32 %.neg17, %22
  %24 = shl nsw i32 %18, 1
  %25 = sub i32 %.sroa.2.0.extract.trunc, %24
  %.sroa.2.0.insert.ext = zext i32 %18 to i64
  %.sroa.2.0.insert.shift = shl nuw i64 %.sroa.2.0.insert.ext, 32
  %.sroa.0.0.insert.ext = zext i32 %21 to i64
  %.sroa.0.0.insert.insert = or disjoint i64 %.sroa.2.0.insert.shift, %.sroa.0.0.insert.ext
  %.fca.0.insert = insertvalue { i64, i64 } poison, i64 %.sroa.0.0.insert.insert, 0
  %.sroa.5.8.insert.ext = zext i32 %25 to i64
  %.sroa.5.8.insert.shift = shl nuw i64 %.sroa.5.8.insert.ext, 32
  %.sroa.3.8.insert.ext = zext i32 %23 to i64
  %.sroa.3.8.insert.insert = or disjoint i64 %.sroa.5.8.insert.shift, %.sroa.3.8.insert.ext
  %.fca.1.insert = insertvalue { i64, i64 } %.fca.0.insert, i64 %.sroa.3.8.insert.insert, 1
  ret { i64, i64 } %.fca.1.insert
}